target datalayout = "e-m:e-p270:32:32-p271:32:32-p272:64:64-i64:64-i128:128-f80:128-n8:16:32:64-S128"
target triple = "x86_64-pc-linux-gnu"

%struct.OSQPSolver = type { ptr, ptr, ptr, ptr }

@__func__.osqp_get_solution = private unnamed_addr constant [18 x i8] c"osqp_get_solution\00", align 1

; Function Attrs: nounwind uwtable
define i64 @osqp_get_solution(ptr noundef %0, ptr noundef %1) #0 {
  %3 = alloca i64, align 8
  %4 = alloca ptr, align 8
  %5 = alloca ptr, align 8
  store ptr %0, ptr %4, align 8
  store ptr %1, ptr %5, align 8
  %6 = load ptr, ptr %4, align 8
  %7 = icmp ne ptr %6, null
  br i1 %7, label %8, label %23

8:                                                ; preds = %2
  %9 = load ptr, ptr %4, align 8
  %10 = getelementptr inbounds %struct.OSQPSolver, ptr %9, i32 0, i32 3
  %11 = load ptr, ptr %10, align 8
  %12 = icmp ne ptr %11, null
  br i1 %12, label %13, label %23

13:                                               ; preds = %8
  %14 = load ptr, ptr %4, align 8
  %15 = getelementptr inbounds %struct.OSQPSolver, ptr %14, i32 0, i32 0
  %16 = load ptr, ptr %15, align 8
  %17 = icmp ne ptr %16, null
  br i1 %17, label %18, label %23

18:                                               ; preds = %13
  %19 = load ptr, ptr %4, align 8
  %20 = getelementptr inbounds %struct.OSQPSolver, ptr %19, i32 0, i32 2
  %21 = load ptr, ptr %20, align 8
  %22 = icmp ne ptr %21, null
  br i1 %22, label %25, label %23

23:                                               ; preds = %18, %13, %8, %2
  %24 = call i64 @_osqp_error(i32 noundef 6, ptr noundef @__func__.osqp_get_solution)
  store i64 %24, ptr %3, align 8
  br label %33

25:                                               ; preds = %18
  %26 = load ptr, ptr %5, align 8
  %27 = icmp ne ptr %26, null
  br i1 %27, label %30, label %28

28:                                               ; preds = %25
  %29 = call i64 @_osqp_error(i32 noundef 6, ptr noundef @__func__.osqp_get_solution)
  store i64 %29, ptr %3, align 8
  br label %33

30:                                               ; preds = %25
  %31 = load ptr, ptr %4, align 8
  %32 = load ptr, ptr %5, align 8
  call void @store_solution(ptr noundef %31, ptr noundef %32)
  store i64 0, ptr %3, align 8
  br label %33

33:                                               ; preds = %30, %28, %23
  %34 = load i64, ptr %3, align 8
  ret i64 %34
}