; Function Attrs: nounwind uwtable
define i64 @osqp_get_solution(ptr noundef %0, ptr noundef %1) local_unnamed_addr #0 {
  %.not = icmp eq ptr %0, null
  br i1 %.not, label %11, label %3

3:                                                ; preds = %2
  %4 = getelementptr inbounds i8, ptr %0, i64 24
  %5 = load ptr, ptr %4, align 8
  %.not9 = icmp eq ptr %5, null
  br i1 %.not9, label %11, label %6

6:                                                ; preds = %3
  %7 = load ptr, ptr %0, align 8
  %.not10 = icmp eq ptr %7, null
  br i1 %.not10, label %11, label %8

8:                                                ; preds = %6
  %9 = getelementptr inbounds i8, ptr %0, i64 16
  %10 = load ptr, ptr %9, align 8
  %.not11 = icmp eq ptr %10, null
  br i1 %.not11, label %11, label %13

11:                                               ; preds = %8, %6, %3, %2
  %12 = tail call i64 @_osqp_error(i32 noundef 6, ptr noundef nonnull @__func__.osqp_get_solution) #15
  br label %17

13:                                               ; preds = %8
  %.not12 = icmp eq ptr %1, null
  br i1 %.not12, label %14, label %16

14:                                               ; preds = %13
  %15 = tail call i64 @_osqp_error(i32 noundef 6, ptr noundef nonnull @__func__.osqp_get_solution) #15
  br label %17

16:                                               ; preds = %13
  tail call void @store_solution(ptr noundef nonnull %0, ptr noundef nonnull %1) #15
  br label %17

17:                                               ; preds = %16, %14, %11
  %.0 = phi i64 [ 0, %16 ], [ %15, %14 ], [ %12, %11 ]
  ret i64 %.0
}